target datalayout = "e-m:e-p270:32:32-p271:32:32-p272:64:64-i64:64-i128:128-f80:128-n8:16:32:64-S128"
target triple = "x86_64-unknown-linux-gnu"

%struct.QTailQLink = type { ptr, ptr }
%struct.BlockDriverState = type { i32, i8, i8, i8, i8, i8, ptr, ptr, ptr, %struct.anon.0, i8, [4096 x i8], [4096 x i8], [4096 x i8], [16 x i8], ptr, [4096 x i8], %struct.BlockLimits, i32, i32, i32, i32, [32 x i8], %union.anon, %union.anon.1, %union.anon.2, i32, [16 x %struct.anon.3], ptr, %struct.anon.4, ptr, ptr, %struct.anon.5, ptr, ptr, i32, ptr, i64, i64, %struct.QemuMutex, %struct.anon.6, %struct.Stat64, i32, i32, i32, i32, i32, i32, %struct.QemuMutex, %struct.anon.7, %struct.CoQueue, i8, i32, i8, %struct.CoMutex, ptr, ptr }
%struct.anon.0 = type { ptr }
%struct.BlockLimits = type { i32, i64, i32, i64, i32, i32, i32, i64, i32, i64, i64, i32, i8, i32, i32, i32, i32, i32, i32, i32 }
%union.anon = type { %struct.QTailQLink }
%union.anon.1 = type { %struct.QTailQLink }
%union.anon.2 = type { %struct.QTailQLink }
%struct.anon.3 = type { ptr }
%struct.anon.4 = type { ptr }
%struct.anon.5 = type { ptr }
%struct.anon.6 = type { ptr }
%struct.Stat64 = type { i64 }
%struct.QemuMutex = type { %union.pthread_mutex_t, i8 }
%union.pthread_mutex_t = type { %struct.__pthread_mutex_s }
%struct.__pthread_mutex_s = type { i32, i32, i32, i32, i32, i16, i16, %struct.__pthread_internal_list }
%struct.__pthread_internal_list = type { ptr, ptr }
%struct.anon.7 = type { ptr }
%struct.CoQueue = type { %struct.anon.8 }
%struct.anon.8 = type { ptr, ptr }
%struct.CoMutex = type { i32, ptr, %struct.anon.9, %struct.anon.9, i32, i32, ptr }
%struct.anon.9 = type { ptr }

@.str.12 = private unnamed_addr constant [25 x i8] c"../qemu/block/blkdebug.c\00", align 1
@.str.55 = private unnamed_addr constant [50 x i8] c"QEMU_IS_ALIGNED(offset, bs->bl.request_alignment)\00", align 1
@.str.56 = private unnamed_addr constant [49 x i8] c"QEMU_IS_ALIGNED(bytes, bs->bl.request_alignment)\00", align 1
@.str.58 = private unnamed_addr constant [143 x i8] c"QEMU_IS_ALIGNED(offset, align) || QEMU_IS_ALIGNED(offset + bytes, align) || DIV_ROUND_UP(offset, align) == DIV_ROUND_UP(offset + bytes, align)\00", align 1
@.str.59 = private unnamed_addr constant [31 x i8] c"QEMU_IS_ALIGNED(offset, align)\00", align 1
@.str.60 = private unnamed_addr constant [30 x i8] c"QEMU_IS_ALIGNED(bytes, align)\00", align 1
@__PRETTY_FUNCTION__.blkdebug_co_pdiscard = private unnamed_addr constant [63 x i8] c"int blkdebug_co_pdiscard(BlockDriverState *, int64_t, int64_t)\00", align 1
@.str.62 = private unnamed_addr constant [29 x i8] c"bytes <= bs->bl.max_pdiscard\00", align 1

; Function Attrs: nounwind sspstrong uwtable
define internal i32 @blkdebug_co_pdiscard(ptr noundef %bs, i64 noundef %offset, i64 noundef %bytes) #0 {
entry:
  %retval = alloca i32, align 4
  %bs.addr = alloca ptr, align 8
  %offset.addr = alloca i64, align 8
  %bytes.addr = alloca i64, align 8
  %align = alloca i32, align 4
  %err = alloca i32, align 4
  store ptr %bs, ptr %bs.addr, align 8
  store i64 %offset, ptr %offset.addr, align 8
  store i64 %bytes, ptr %bytes.addr, align 8
  %0 = load ptr, ptr %bs.addr, align 8
  %bl = getelementptr inbounds %struct.BlockDriverState, ptr %0, i32 0, i32 17
  %pdiscard_alignment = getelementptr inbounds %struct.BlockLimits, ptr %bl, i32 0, i32 2
  %1 = load i32, ptr %pdiscard_alignment, align 8
  store i32 %1, ptr %align, align 4
  %2 = load i64, ptr %bytes.addr, align 8
  %3 = load ptr, ptr %bs.addr, align 8
  %bl1 = getelementptr inbounds %struct.BlockDriverState, ptr %3, i32 0, i32 17
  %request_alignment = getelementptr inbounds %struct.BlockLimits, ptr %bl1, i32 0, i32 0
  %4 = load i32, ptr %request_alignment, align 8
  %conv = zext i32 %4 to i64
  %cmp = icmp slt i64 %2, %conv
  br i1 %cmp, label %if.then, label %if.end23

if.then:                                          ; preds = %entry
  %5 = load i64, ptr %offset.addr, align 8
  %6 = load i32, ptr %align, align 4
  %conv3 = zext i32 %6 to i64
  %rem = srem i64 %5, %conv3
  %cmp4 = icmp eq i64 %rem, 0
  br i1 %cmp4, label %if.then22, label %lor.lhs.false

lor.lhs.false:                                    ; preds = %if.then
  %7 = load i64, ptr %offset.addr, align 8
  %8 = load i64, ptr %bytes.addr, align 8
  %add = add i64 %7, %8
  %9 = load i32, ptr %align, align 4
  %conv6 = zext i32 %9 to i64
  %rem7 = srem i64 %add, %conv6
  %cmp8 = icmp eq i64 %rem7, 0
  br i1 %cmp8, label %if.then22, label %lor.lhs.false10

lor.lhs.false10:                                  ; preds = %lor.lhs.false
  %10 = load i64, ptr %offset.addr, align 8
  %11 = load i32, ptr %align, align 4
  %conv11 = zext i32 %11 to i64
  %add12 = add i64 %10, %conv11
  %sub = sub i64 %add12, 1
  %12 = load i32, ptr %align, align 4
  %conv13 = zext i32 %12 to i64
  %div = sdiv i64 %sub, %conv13
  %13 = load i64, ptr %offset.addr, align 8
  %14 = load i64, ptr %bytes.addr, align 8
  %add14 = add i64 %13, %14
  %15 = load i32, ptr %align, align 4
  %conv15 = zext i32 %15 to i64
  %add16 = add i64 %add14, %conv15
  %sub17 = sub i64 %add16, 1
  %16 = load i32, ptr %align, align 4
  %conv18 = zext i32 %16 to i64
  %div19 = sdiv i64 %sub17, %conv18
  %cmp20 = icmp eq i64 %div, %div19
  br i1 %cmp20, label %if.then22, label %if.else

if.then22:                                        ; preds = %lor.lhs.false10, %lor.lhs.false, %if.then
  br label %if.end

if.else:                                          ; preds = %lor.lhs.false10
  call void @__assert_fail(ptr noundef @.str.58, ptr noundef @.str.12, i32 noundef 732, ptr noundef @__PRETTY_FUNCTION__.blkdebug_co_pdiscard) #15
  unreachable

if.end:                                           ; preds = %if.then22
  store i32 -95, ptr %retval, align 4
  br label %return

if.end23:                                         ; preds = %entry
  %17 = load i64, ptr %offset.addr, align 8
  %18 = load ptr, ptr %bs.addr, align 8
  %bl24 = getelementptr inbounds %struct.BlockDriverState, ptr %18, i32 0, i32 17
  %request_alignment25 = getelementptr inbounds %struct.BlockLimits, ptr %bl24, i32 0, i32 0
  %19 = load i32, ptr %request_alignment25, align 8
  %conv26 = zext i32 %19 to i64
  %rem27 = srem i64 %17, %conv26
  %cmp28 = icmp eq i64 %rem27, 0
  br i1 %cmp28, label %if.then30, label %if.else31

if.then30:                                        ; preds = %if.end23
  br label %if.end32

if.else31:                                        ; preds = %if.end23
  call void @__assert_fail(ptr noundef @.str.55, ptr noundef @.str.12, i32 noundef 735, ptr noundef @__PRETTY_FUNCTION__.blkdebug_co_pdiscard) #15
  unreachable

if.end32:                                         ; preds = %if.then30
  %20 = load i64, ptr %bytes.addr, align 8
  %21 = load ptr, ptr %bs.addr, align 8
  %bl33 = getelementptr inbounds %struct.BlockDriverState, ptr %21, i32 0, i32 17
  %request_alignment34 = getelementptr inbounds %struct.BlockLimits, ptr %bl33, i32 0, i32 0
  %22 = load i32, ptr %request_alignment34, align 8
  %conv35 = zext i32 %22 to i64
  %rem36 = srem i64 %20, %conv35
  %cmp37 = icmp eq i64 %rem36, 0
  br i1 %cmp37, label %if.then39, label %if.else40

if.then39:                                        ; preds = %if.end32
  br label %if.end41

if.else40:                                        ; preds = %if.end32
  call void @__assert_fail(ptr noundef @.str.56, ptr noundef @.str.12, i32 noundef 736, ptr noundef @__PRETTY_FUNCTION__.blkdebug_co_pdiscard) #15
  unreachable

if.end41:                                         ; preds = %if.then39
  %23 = load i32, ptr %align, align 4
  %tobool = icmp ne i32 %23, 0
  br i1 %tobool, label %land.lhs.true, label %if.end60

land.lhs.true:                                    ; preds = %if.end41
  %24 = load i64, ptr %bytes.addr, align 8
  %25 = load i32, ptr %align, align 4
  %conv42 = zext i32 %25 to i64
  %cmp43 = icmp sge i64 %24, %conv42
  br i1 %cmp43, label %if.then45, label %if.end60

if.then45:                                        ; preds = %land.lhs.true
  %26 = load i64, ptr %offset.addr, align 8
  %27 = load i32, ptr %align, align 4
  %conv46 = zext i32 %27 to i64
  %rem47 = srem i64 %26, %conv46
  %cmp48 = icmp eq i64 %rem47, 0
  br i1 %cmp48, label %if.then50, label %if.else51

if.then50:                                        ; preds = %if.then45
  br label %if.end52

if.else51:                                        ; preds = %if.then45
  call void @__assert_fail(ptr noundef @.str.59, ptr noundef @.str.12, i32 noundef 738, ptr noundef @__PRETTY_FUNCTION__.blkdebug_co_pdiscard) #15
  unreachable

if.end52:                                         ; preds = %if.then50
  %28 = load i64, ptr %bytes.addr, align 8
  %29 = load i32, ptr %align, align 4
  %conv53 = zext i32 %29 to i64
  %rem54 = srem i64 %28, %conv53
  %cmp55 = icmp eq i64 %rem54, 0
  br i1 %cmp55, label %if.then57, label %if.else58

if.then57:                                        ; preds = %if.end52
  br label %if.end59

if.else58:                                        ; preds = %if.end52
  call void @__assert_fail(ptr noundef @.str.60, ptr noundef @.str.12, i32 noundef 739, ptr noundef @__PRETTY_FUNCTION__.blkdebug_co_pdiscard) #15
  unreachable

if.end59:                                         ; preds = %if.then57
  br label %if.end60

if.end60:                                         ; preds = %if.end59, %land.lhs.true, %if.end41
  %30 = load ptr, ptr %bs.addr, align 8
  %bl61 = getelementptr inbounds %struct.BlockDriverState, ptr %30, i32 0, i32 17
  %max_pdiscard = getelementptr inbounds %struct.BlockLimits, ptr %bl61, i32 0, i32 1
  %31 = load i64, ptr %max_pdiscard, align 8
  %tobool62 = icmp ne i64 %31, 0
  br i1 %tobool62, label %if.then63, label %if.end71

if.then63:                                        ; preds = %if.end60
  %32 = load i64, ptr %bytes.addr, align 8
  %33 = load ptr, ptr %bs.addr, align 8
  %bl64 = getelementptr inbounds %struct.BlockDriverState, ptr %33, i32 0, i32 17
  %max_pdiscard65 = getelementptr inbounds %struct.BlockLimits, ptr %bl64, i32 0, i32 1
  %34 = load i64, ptr %max_pdiscard65, align 8
  %cmp66 = icmp sle i64 %32, %34
  br i1 %cmp66, label %if.then68, label %if.else69

if.then68:                                        ; preds = %if.then63
  br label %if.end70

if.else69:                                        ; preds = %if.then63
  call void @__assert_fail(ptr noundef @.str.62, ptr noundef @.str.12, i32 noundef 742, ptr noundef @__PRETTY_FUNCTION__.blkdebug_co_pdiscard) #15
  unreachable

if.end70:                                         ; preds = %if.then68
  br label %if.end71

if.end71:                                         ; preds = %if.end70, %if.end60
  %35 = load ptr, ptr %bs.addr, align 8
  %36 = load i64, ptr %offset.addr, align 8
  %37 = load i64, ptr %bytes.addr, align 8
  %call = call i32 @rule_check(ptr noundef %35, i64 noundef %36, i64 noundef %37, i32 noundef 3)
  store i32 %call, ptr %err, align 4
  %38 = load i32, ptr %err, align 4
  %tobool72 = icmp ne i32 %38, 0
  br i1 %tobool72, label %if.then73, label %if.end74

if.then73:                                        ; preds = %if.end71
  %39 = load i32, ptr %err, align 4
  store i32 %39, ptr %retval, align 4
  br label %return

if.end74:                                         ; preds = %if.end71
  %40 = load ptr, ptr %bs.addr, align 8
  %file = getelementptr inbounds %struct.BlockDriverState, ptr %40, i32 0, i32 31
  %41 = load ptr, ptr %file, align 8
  %42 = load i64, ptr %offset.addr, align 8
  %43 = load i64, ptr %bytes.addr, align 8
  %call75 = call i32 @bdrv_co_pdiscard(ptr noundef %41, i64 noundef %42, i64 noundef %43)
  store i32 %call75, ptr %retval, align 4
  br label %return

return:                                           ; preds = %if.end74, %if.then73, %if.end
  %44 = load i32, ptr %retval, align 4
  ret i32 %44
}