; Function Attrs: nounwind sspstrong uwtable
define internal i32 @blkdebug_co_pdiscard(ptr noundef readonly captures(none) %bs, i64 noundef %offset, i64 noundef %bytes) #0 {
entry:
  %bl = getelementptr inbounds nuw i8, ptr %bs, i64 16464
  %pdiscard_alignment = getelementptr inbounds nuw i8, ptr %bs, i64 16480
  %0 = load i32, ptr %pdiscard_alignment, align 8
  %1 = load i32, ptr %bl, align 8
  %conv = zext i32 %1 to i64
  %cmp = icmp slt i64 %bytes, %conv
  br i1 %cmp, label %if.then, label %if.end23

if.then:                                          ; preds = %entry
  %conv3 = zext i32 %0 to i64
  %rem = srem i64 %offset, %conv3
  %cmp4 = icmp eq i64 %rem, 0
  br i1 %cmp4, label %return, label %lor.lhs.false

lor.lhs.false:                                    ; preds = %if.then
  %add = add i64 %bytes, %offset
  %rem7 = srem i64 %add, %conv3
  %cmp8 = icmp eq i64 %rem7, 0
  br i1 %cmp8, label %return, label %lor.lhs.false10

lor.lhs.false10:                                  ; preds = %lor.lhs.false
  %add12 = add i64 %offset, -1
  %sub = add i64 %add12, %conv3
  %div = sdiv i64 %sub, %conv3
  %add16 = add i64 %add, -1
  %sub17 = add i64 %add16, %conv3
  %div19 = sdiv i64 %sub17, %conv3
  %cmp20 = icmp eq i64 %div, %div19
  br i1 %cmp20, label %return, label %if.else

if.else:                                          ; preds = %lor.lhs.false10
  tail call void @__assert_fail(ptr noundef nonnull @.str.58, ptr noundef nonnull @.str.12, i32 noundef 732, ptr noundef nonnull @__PRETTY_FUNCTION__.blkdebug_co_pdiscard) #17
  unreachable

if.end23:                                         ; preds = %entry
  %rem27 = srem i64 %offset, %conv
  %cmp28 = icmp eq i64 %rem27, 0
  br i1 %cmp28, label %if.end32, label %if.else31

if.else31:                                        ; preds = %if.end23
  tail call void @__assert_fail(ptr noundef nonnull @.str.55, ptr noundef nonnull @.str.12, i32 noundef 735, ptr noundef nonnull @__PRETTY_FUNCTION__.blkdebug_co_pdiscard) #17
  unreachable

if.end32:                                         ; preds = %if.end23
  %rem36 = urem i64 %bytes, %conv
  %cmp37 = icmp eq i64 %rem36, 0
  br i1 %cmp37, label %if.end41, label %if.else40

if.else40:                                        ; preds = %if.end32
  tail call void @__assert_fail(ptr noundef nonnull @.str.56, ptr noundef nonnull @.str.12, i32 noundef 736, ptr noundef nonnull @__PRETTY_FUNCTION__.blkdebug_co_pdiscard) #17
  unreachable

if.end41:                                         ; preds = %if.end32
  %tobool.not = icmp eq i32 %0, 0
  br i1 %tobool.not, label %if.end60, label %land.lhs.true

land.lhs.true:                                    ; preds = %if.end41
  %conv42 = zext i32 %0 to i64
  %cmp43.not = icmp samesign ult i64 %bytes, %conv42
  br i1 %cmp43.not, label %if.end60, label %if.then45

if.then45:                                        ; preds = %land.lhs.true
  %rem47 = srem i64 %offset, %conv42
  %cmp48 = icmp eq i64 %rem47, 0
  br i1 %cmp48, label %if.end52, label %if.else51

if.else51:                                        ; preds = %if.then45
  tail call void @__assert_fail(ptr noundef nonnull @.str.59, ptr noundef nonnull @.str.12, i32 noundef 738, ptr noundef nonnull @__PRETTY_FUNCTION__.blkdebug_co_pdiscard) #17
  unreachable

if.end52:                                         ; preds = %if.then45
  %rem54 = urem i64 %bytes, %conv42
  %cmp55 = icmp eq i64 %rem54, 0
  br i1 %cmp55, label %if.end60, label %if.else58

if.else58:                                        ; preds = %if.end52
  tail call void @__assert_fail(ptr noundef nonnull @.str.60, ptr noundef nonnull @.str.12, i32 noundef 739, ptr noundef nonnull @__PRETTY_FUNCTION__.blkdebug_co_pdiscard) #17
  unreachable

if.end60:                                         ; preds = %if.end52, %land.lhs.true, %if.end41
  %max_pdiscard = getelementptr inbounds nuw i8, ptr %bs, i64 16472
  %2 = load i64, ptr %max_pdiscard, align 8
  %tobool62.not = icmp ne i64 %2, 0
  %cmp66.not = icmp sgt i64 %bytes, %2
  %or.cond = and i1 %tobool62.not, %cmp66.not
  br i1 %or.cond, label %if.else69, label %if.end71

if.else69:                                        ; preds = %if.end60
  tail call void @__assert_fail(ptr noundef nonnull @.str.62, ptr noundef nonnull @.str.12, i32 noundef 742, ptr noundef nonnull @__PRETTY_FUNCTION__.blkdebug_co_pdiscard) #17
  unreachable

if.end71:                                         ; preds = %if.end60
  %call = tail call i32 @rule_check(ptr noundef nonnull %bs, i64 noundef %offset, i64 noundef %bytes, i32 noundef 3)
  %tobool72.not = icmp eq i32 %call, 0
  br i1 %tobool72.not, label %if.end74, label %return

if.end74:                                         ; preds = %if.end71
  %file = getelementptr inbounds nuw i8, ptr %bs, i64 16840
  %3 = load ptr, ptr %file, align 8
  %call75 = tail call i32 @bdrv_co_pdiscard(ptr noundef %3, i64 noundef %offset, i64 noundef %bytes) #13
  br label %return

return:                                           ; preds = %if.end71, %lor.lhs.false10, %lor.lhs.false, %if.then, %if.end74
  %retval.0 = phi i32 [ %call75, %if.end74 ], [ -95, %if.then ], [ -95, %lor.lhs.false ], [ -95, %lor.lhs.false10 ], [ %call, %if.end71 ]
  ret i32 %retval.0
}